EXPORTS
    _Z13testCsvHelperv @1
    _Z13testDirHelperv @2
    _ZN10FileHelperC1Ev @3
    _ZN10FileHelperC2Ev @4
    _ZN10FileHelperD0Ev @5
    _ZN10FileHelperD1Ev @6
    _ZN10FileHelperD2Ev @7
    _ZN8IOHelperC1Ev @8
    _ZN8IOHelperC2Ev @9
    _ZN8IOHelperD0Ev @10
    _ZN8IOHelperD1Ev @11
    _ZN8IOHelperD2Ev @12
    _ZN9CsvHelper14getStringValueEmm @13
    _ZN9CsvHelper14getVecFromLineEiRSt6vectorISsSaISsEE @14
    _ZN9CsvHelper14parseLineToVecESsRSt6vectorISsSaISsEE @15
    _ZN9CsvHelper7loadCSVEPKc @16
    _ZN9CsvHelper9getCSVMapEv @17
    _ZN9CsvHelperC1EPKc @18
    _ZN9CsvHelperC2EPKc @19
    _ZN9CsvHelperD1Ev @20
    _ZN9CsvHelperD2Ev @21
    _ZN9CsvReaderC1Ev @22
    _ZN9CsvReaderC2Ev @23
    _ZN9CsvReaderD0Ev @24
    _ZN9CsvReaderD1Ev @25
    _ZN9CsvReaderD2Ev @26
    _ZN9DirHelper10getDirNameEv @27
    _ZN9DirHelper12getSpecFilesESs @28
    _ZN9DirHelperC1ESs @29
    _ZN9DirHelperC1Ev @30
    _ZN9DirHelperC2ESs @31
    _ZN9DirHelperC2Ev @32
    _ZN9DirHelperD0Ev @33
    _ZN9DirHelperD1Ev @34
    _ZN9DirHelperD2Ev @35
    _ZN9__gnu_cxx13new_allocatorISsE10deallocateEPSsj @36
    _ZN9__gnu_cxx13new_allocatorISsE7destroyISsEEvPT_ @37
    _ZN9__gnu_cxx13new_allocatorISsE8allocateEjPKv @38
    _ZN9__gnu_cxx13new_allocatorISsE9constructISsIRKSsEEEvPT_DpOT0_ @39
    _ZN9__gnu_cxx13new_allocatorISsEC2Ev @40
    _ZN9__gnu_cxx13new_allocatorISsED2Ev @41
    _ZN9__gnu_cxx13new_allocatorISt13_Rb_tree_nodeISt4pairIKmSsEEE10deallocateEPS5_j @42
    _ZN9__gnu_cxx13new_allocatorISt13_Rb_tree_nodeISt4pairIKmSsEEE7destroyIS4_EEvPT_ @43
    _ZN9__gnu_cxx13new_allocatorISt13_Rb_tree_nodeISt4pairIKmSsEEE8allocateEjPKv @44
    _ZN9__gnu_cxx13new_allocatorISt13_Rb_tree_nodeISt4pairIKmSsEEE9constructIS4_IRKS4_EEEvPT_DpOT0_ @45
    _ZN9__gnu_cxx13new_allocatorISt13_Rb_tree_nodeISt4pairIKmSsEEE9constructIS4_IRKSt21piecewise_construct_tSt5tupleIIOmEESB_IIEEEEEvPT_DpOT0_ @46
    _ZN9__gnu_cxx13new_allocatorISt13_Rb_tree_nodeISt4pairIKmSsEEEC2ERKS6_ @47
    _ZN9__gnu_cxx13new_allocatorISt13_Rb_tree_nodeISt4pairIKmSsEEEC2Ev @48
    _ZN9__gnu_cxx13new_allocatorISt13_Rb_tree_nodeISt4pairIKmSsEEED2Ev @49
    _ZN9__gnu_cxx13new_allocatorISt13_Rb_tree_nodeISt4pairIKmSt3mapImSsSt4lessImESaIS2_IS3_SsEEEEEE10deallocateEPSB_j @50
    _ZN9__gnu_cxx13new_allocatorISt13_Rb_tree_nodeISt4pairIKmSt3mapImSsSt4lessImESaIS2_IS3_SsEEEEEE7destroyISA_EEvPT_ @51
    _ZN9__gnu_cxx13new_allocatorISt13_Rb_tree_nodeISt4pairIKmSt3mapImSsSt4lessImESaIS2_IS3_SsEEEEEE8allocateEjPKv @52
    _ZN9__gnu_cxx13new_allocatorISt13_Rb_tree_nodeISt4pairIKmSt3mapImSsSt4lessImESaIS2_IS3_SsEEEEEE9constructISA_IRKSt21piecewise_construct_tSt5tupleIIOmEESH_IIEEEEEvPT_DpOT0_ @53
    _ZN9__gnu_cxx13new_allocatorISt13_Rb_tree_nodeISt4pairIKmSt3mapImSsSt4lessImESaIS2_IS3_SsEEEEEE9constructISA_IRKSt21piecewise_construct_tSt5tupleIIRS3_EESH_IIEEEEEvPT_DpOT0_ @54
    _ZN9__gnu_cxx13new_allocatorISt13_Rb_tree_nodeISt4pairIKmSt3mapImSsSt4lessImESaIS2_IS3_SsEEEEEEC2Ev @55
    _ZN9__gnu_cxx13new_allocatorISt13_Rb_tree_nodeISt4pairIKmSt3mapImSsSt4lessImESaIS2_IS3_SsEEEEEED2Ev @56
    _ZN9__gnu_cxx14__alloc_traitsISaISt13_Rb_tree_nodeISt4pairIKmSsEEEE15_S_always_equalEv @57
    _ZN9__gnu_cxx14__alloc_traitsISaISt13_Rb_tree_nodeISt4pairIKmSsEEEE17_S_select_on_copyERKS6_ @58
    _ZN9__gnu_cxx14__alloc_traitsISaISt13_Rb_tree_nodeISt4pairIKmSsEEEE27_S_propagate_on_copy_assignEv @59
    _ZN9__gnu_cxx16__aligned_bufferISt4pairIKmSsEE6_M_ptrEv @60
    _ZN9__gnu_cxx16__aligned_bufferISt4pairIKmSsEE7_M_addrEv @61
    _ZN9__gnu_cxx16__aligned_bufferISt4pairIKmSt3mapImSsSt4lessImESaIS1_IS2_SsEEEEE6_M_ptrEv @62
    _ZN9__gnu_cxx16__aligned_bufferISt4pairIKmSt3mapImSsSt4lessImESaIS1_IS2_SsEEEEE7_M_addrEv @63
    _ZNK9__gnu_cxx13new_allocatorISsE8max_sizeEv @64
    _ZNK9__gnu_cxx13new_allocatorISt13_Rb_tree_nodeISt4pairIKmSsEEE8max_sizeEv @65
    _ZNK9__gnu_cxx13new_allocatorISt13_Rb_tree_nodeISt4pairIKmSt3mapImSsSt4lessImESaIS2_IS3_SsEEEEEE8max_sizeEv @66
    _ZNK9__gnu_cxx16__aligned_bufferISt4pairIKmSsEE6_M_ptrEv @67
    _ZNK9__gnu_cxx16__aligned_bufferISt4pairIKmSsEE7_M_addrEv @68
    _ZNK9__gnu_cxx16__aligned_bufferISt4pairIKmSt3mapImSsSt4lessImESaIS1_IS2_SsEEEEE6_M_ptrEv @69
    _ZNK9__gnu_cxx16__aligned_bufferISt4pairIKmSt3mapImSsSt4lessImESaIS1_IS2_SsEEEEE7_M_addrEv @70
    _ZNKSt10_Select1stISt4pairIKmSsEEclERKS2_ @71
    _ZNKSt10_Select1stISt4pairIKmSt3mapImSsSt4lessImESaIS0_IS1_SsEEEEEclERKS8_ @72
    _ZNKSt12_Vector_baseISsSaISsEE19_M_get_Tp_allocatorEv @73
    _ZNKSt13_Rb_tree_nodeISt4pairIKmSsEE9_M_valptrEv @74
    _ZNKSt13_Rb_tree_nodeISt4pairIKmSt3mapImSsSt4lessImESaIS0_IS1_SsEEEEE9_M_valptrEv @75
    _ZNKSt17_Rb_tree_iteratorISt4pairIKmSsEEdeEv @76
    _ZNKSt17_Rb_tree_iteratorISt4pairIKmSsEEeqERKS3_ @77
    _ZNKSt17_Rb_tree_iteratorISt4pairIKmSsEEneERKS3_ @78
    _ZNKSt17_Rb_tree_iteratorISt4pairIKmSsEEptEv @79
    _ZNKSt17_Rb_tree_iteratorISt4pairIKmSt3mapImSsSt4lessImESaIS0_IS1_SsEEEEEdeEv @80
    _ZNKSt17_Rb_tree_iteratorISt4pairIKmSt3mapImSsSt4lessImESaIS0_IS1_SsEEEEEeqERKS9_ @81
    _ZNKSt17_Rb_tree_iteratorISt4pairIKmSt3mapImSsSt4lessImESaIS0_IS1_SsEEEEEneERKS9_ @82
    _ZNKSt17_Rb_tree_iteratorISt4pairIKmSt3mapImSsSt4lessImESaIS0_IS1_SsEEEEEptEv @83
    _ZNKSt23_Rb_tree_const_iteratorISt4pairIKmSsEE13_M_const_castEv @84
    _ZNKSt23_Rb_tree_const_iteratorISt4pairIKmSt3mapImSsSt4lessImESaIS0_IS1_SsEEEEE13_M_const_castEv @85
    _ZNKSt3mapImS_ImSsSt4lessImESaISt4pairIKmSsEEES1_SaIS2_IS3_S6_EEE4sizeEv @86
    _ZNKSt3mapImS_ImSsSt4lessImESaISt4pairIKmSsEEES1_SaIS2_IS3_S6_EEE8key_compEv @87
    _ZNKSt3mapImSsSt4lessImESaISt4pairIKmSsEEE8key_compEv @88
    _ZNKSt4lessImEclERKmS2_ @89
    _ZNKSt6vectorISsSaISsEE12_M_check_lenEjPKc @90
    _ZNKSt6vectorISsSaISsEE4sizeEv @91
    _ZNKSt6vectorISsSaISsEE8max_sizeEv @92
    _ZNKSt8_Rb_treeImSt4pairIKmSsESt10_Select1stIS2_ESt4lessImESaIS2_EE21_M_get_Node_allocatorEv @93
    _ZNKSt8_Rb_treeImSt4pairIKmSsESt10_Select1stIS2_ESt4lessImESaIS2_EE4sizeEv @94
    _ZNKSt8_Rb_treeImSt4pairIKmSsESt10_Select1stIS2_ESt4lessImESaIS2_EE7_M_rootEv @95
    _ZNKSt8_Rb_treeImSt4pairIKmSsESt10_Select1stIS2_ESt4lessImESaIS2_EE8_M_beginEv @96
    _ZNKSt8_Rb_treeImSt4pairIKmSsESt10_Select1stIS2_ESt4lessImESaIS2_EE8key_compEv @97
    _ZNKSt8_Rb_treeImSt4pairIKmSt3mapImSsSt4lessImESaIS0_IS1_SsEEEESt10_Select1stIS8_ES4_SaIS8_EE4sizeEv @98
    _ZNKSt8_Rb_treeImSt4pairIKmSt3mapImSsSt4lessImESaIS0_IS1_SsEEEESt10_Select1stIS8_ES4_SaIS8_EE8key_compEv @99
    _ZNSaISsEC2Ev @100
    _ZNSaISsED2Ev @101
    _ZNSaISt13_Rb_tree_nodeISt4pairIKmSsEEEC1ERKS4_ @102
    _ZNSaISt13_Rb_tree_nodeISt4pairIKmSsEEEC2ERKS4_ @103
    _ZNSaISt13_Rb_tree_nodeISt4pairIKmSsEEEC2Ev @104
    _ZNSaISt13_Rb_tree_nodeISt4pairIKmSsEEED1Ev @105
    _ZNSaISt13_Rb_tree_nodeISt4pairIKmSsEEED2Ev @106
    _ZNSaISt13_Rb_tree_nodeISt4pairIKmSt3mapImSsSt4lessImESaIS0_IS1_SsEEEEEEC2Ev @107
    _ZNSaISt13_Rb_tree_nodeISt4pairIKmSt3mapImSsSt4lessImESaIS0_IS1_SsEEEEEED2Ev @108
    _ZNSt10_Head_baseILj0EOmLb0EE7_M_headERS1_ @109
    _ZNSt10_Head_baseILj0EOmLb0EEC2ImvEEOT_ @110
    _ZNSt10_Head_baseILj0ERKmLb0EE7_M_headERS2_ @111
    _ZNSt10_Head_baseILj0ERKmLb0EEC2ES1_ @112
    _ZNSt11_Tuple_implILj0EIOmEE7_M_headERS1_ @113
    _ZNSt11_Tuple_implILj0EIOmEE7_M_tailERS1_ @114
    _ZNSt11_Tuple_implILj0EIOmEEC2EOS1_ @115
    _ZNSt11_Tuple_implILj0EIOmEEC2ImIEvEEOT_DpOT0_ @116
    _ZNSt11_Tuple_implILj0EIRKmEE7_M_headERS2_ @117
    _ZNSt11_Tuple_implILj0EIRKmEE7_M_tailERS2_ @118
    _ZNSt11_Tuple_implILj0EIRKmEEC2EOS2_ @119
    _ZNSt11_Tuple_implILj0EIRKmEEC2ES1_ @120
    _ZNSt11_Tuple_implILj1EIEEC2Ev @121
    _ZNSt11char_traitsIcE6lengthEPKc @122
    _ZNSt12_Destroy_auxILb0EE9__destroyIPSsEEvT_S3_ @123
    _ZNSt12_Vector_baseISsSaISsEE11_M_allocateEj @124
    _ZNSt12_Vector_baseISsSaISsEE12_Vector_implC1Ev @125
    _ZNSt12_Vector_baseISsSaISsEE12_Vector_implD1Ev @126
    _ZNSt12_Vector_baseISsSaISsEE13_M_deallocateEPSsj @127
    _ZNSt12_Vector_baseISsSaISsEE19_M_get_Tp_allocatorEv @128
    _ZNSt12_Vector_baseISsSaISsEEC2Ev @129
    _ZNSt12_Vector_baseISsSaISsEED2Ev @130
    _ZNSt13_Rb_tree_nodeISt4pairIKmSsEE9_M_valptrEv @131
    _ZNSt13_Rb_tree_nodeISt4pairIKmSt3mapImSsSt4lessImESaIS0_IS1_SsEEEEE9_M_valptrEv @132
    _ZNSt16allocator_traitsISaISsEE10_S_destroyISsEENSt9enable_ifIXsrSt6__and_IINS1_16__destroy_helperIT_E4typeEEE5valueEvE4typeERS0_PS6_ @133
    _ZNSt16allocator_traitsISaISsEE10deallocateERS0_PSsj @134
    _ZNSt16allocator_traitsISaISsEE11_S_max_sizeIKS0_vEEjRT_i @135
    _ZNSt16allocator_traitsISaISsEE12_S_constructISsIRKSsEEENSt9enable_ifIXsrSt6__and_IINS1_18__construct_helperIT_IDpT0_EE4typeEEE5valueEvE4typeERS0_PS8_DpOS9_ @136
    _ZNSt16allocator_traitsISaISsEE7destroyISsEEvRS0_PT_ @137
    _ZNSt16allocator_traitsISaISsEE8allocateERS0_j @138
    _ZNSt16allocator_traitsISaISsEE8max_sizeERKS0_ @139
    _ZNSt16allocator_traitsISaISsEE9constructISsIRKSsEEEDTcl12_S_constructfp_fp0_spcl7forwardIT0_Efp1_EEERS0_PT_DpOS5_ @140
    _ZNSt16allocator_traitsISaISt13_Rb_tree_nodeISt4pairIKmSsEEEE10_S_destroyIS3_EENSt9enable_ifIXsrSt6__and_IINS6_16__destroy_helperIT_E4typeEEE5valueEvE4typeERS5_PSB_ @141
    _ZNSt16allocator_traitsISaISt13_Rb_tree_nodeISt4pairIKmSsEEEE10deallocateERS5_PS4_j @142
    _ZNSt16allocator_traitsISaISt13_Rb_tree_nodeISt4pairIKmSsEEEE12_S_constructIS3_IRKS3_EEENSt9enable_ifIXsrSt6__and_IINS6_18__construct_helperIT_IDpT0_EE4typeEEE5valueEvE4typeERS5_PSD_DpOSE_ @143
    _ZNSt16allocator_traitsISaISt13_Rb_tree_nodeISt4pairIKmSsEEEE12_S_constructIS3_IRKSt21piecewise_construct_tSt5tupleIIOmEESB_IIEEEEENSt9enable_ifIXsrSt6__and_IINS6_18__construct_helperIT_IDpT0_EE4typeEEE5valueEvE4typeERS5_PSI_DpOSJ_ @144
    _ZNSt16allocator_traitsISaISt13_Rb_tree_nodeISt4pairIKmSsEEEE37select_on_container_copy_constructionERKS5_ @145
    _ZNSt16allocator_traitsISaISt13_Rb_tree_nodeISt4pairIKmSsEEEE7destroyIS3_EEvRS5_PT_ @146
    _ZNSt16allocator_traitsISaISt13_Rb_tree_nodeISt4pairIKmSsEEEE8allocateERS5_j @147
    _ZNSt16allocator_traitsISaISt13_Rb_tree_nodeISt4pairIKmSsEEEE9_S_selectIKS5_vEET_RS9_z @148
    _ZNSt16allocator_traitsISaISt13_Rb_tree_nodeISt4pairIKmSsEEEE9constructIS3_IRKS3_EEEDTcl12_S_constructfp_fp0_spcl7forwardIT0_Efp1_EEERS5_PT_DpOSA_ @149
    _ZNSt16allocator_traitsISaISt13_Rb_tree_nodeISt4pairIKmSsEEEE9constructIS3_IRKSt21piecewise_construct_tSt5tupleIIOmEESB_IIEEEEEDTcl12_S_constructfp_fp0_spcl7forwardIT0_Efp1_EEERS5_PT_DpOSF_ @150
    _ZNSt16allocator_traitsISaISt13_Rb_tree_nodeISt4pairIKmSt3mapImSsSt4lessImESaIS1_IS2_SsEEEEEEE10_S_destroyIS9_EENSt9enable_ifIXsrSt6__and_IINSC_16__destroy_helperIT_E4typeEEE5valueEvE4typeERSB_PSH_ @151
    _ZNSt16allocator_traitsISaISt13_Rb_tree_nodeISt4pairIKmSt3mapImSsSt4lessImESaIS1_IS2_SsEEEEEEE10deallocateERSB_PSA_j @152
    _ZNSt16allocator_traitsISaISt13_Rb_tree_nodeISt4pairIKmSt3mapImSsSt4lessImESaIS1_IS2_SsEEEEEEE12_S_constructIS9_IRKSt21piecewise_construct_tSt5tupleIIOmEESH_IIEEEEENSt9enable_ifIXsrSt6__and_IINSC_18__construct_helperIT_IDpT0_EE4typeEEE5valueEvE4typeERSB_PSO_DpOSP_ @153
    _ZNSt16allocator_traitsISaISt13_Rb_tree_nodeISt4pairIKmSt3mapImSsSt4lessImESaIS1_IS2_SsEEEEEEE12_S_constructIS9_IRKSt21piecewise_construct_tSt5tupleIIRS2_EESH_IIEEEEENSt9enable_ifIXsrSt6__and_IINSC_18__construct_helperIT_IDpT0_EE4typeEEE5valueEvE4typeERSB_PSO_DpOSP_ @154
    _ZNSt16allocator_traitsISaISt13_Rb_tree_nodeISt4pairIKmSt3mapImSsSt4lessImESaIS1_IS2_SsEEEEEEE7destroyIS9_EEvRSB_PT_ @155
    _ZNSt16allocator_traitsISaISt13_Rb_tree_nodeISt4pairIKmSt3mapImSsSt4lessImESaIS1_IS2_SsEEEEEEE8allocateERSB_j @156
    _ZNSt16allocator_traitsISaISt13_Rb_tree_nodeISt4pairIKmSt3mapImSsSt4lessImESaIS1_IS2_SsEEEEEEE9constructIS9_IRKSt21piecewise_construct_tSt5tupleIIOmEESH_IIEEEEEDTcl12_S_constructfp_fp0_spcl7forwardIT0_Efp1_EEERSB_PT_DpOSL_ @157
    _ZNSt16allocator_traitsISaISt13_Rb_tree_nodeISt4pairIKmSt3mapImSsSt4lessImESaIS1_IS2_SsEEEEEEE9constructIS9_IRKSt21piecewise_construct_tSt5tupleIIRS2_EESH_IIEEEEEDTcl12_S_constructfp_fp0_spcl7forwardIT0_Efp1_EEERSB_PT_DpOSL_ @158
    _ZNSt17_Rb_tree_iteratorISt4pairIKmSsEEC1EPSt13_Rb_tree_nodeIS2_E @159
    _ZNSt17_Rb_tree_iteratorISt4pairIKmSsEEC1Ev @160
    _ZNSt17_Rb_tree_iteratorISt4pairIKmSsEEmmEv @161
    _ZNSt17_Rb_tree_iteratorISt4pairIKmSsEEppEv @162
    _ZNSt17_Rb_tree_iteratorISt4pairIKmSt3mapImSsSt4lessImESaIS0_IS1_SsEEEEEC1EPSt13_Rb_tree_nodeIS8_E @163
    _ZNSt17_Rb_tree_iteratorISt4pairIKmSt3mapImSsSt4lessImESaIS0_IS1_SsEEEEEmmEv @164
    _ZNSt17_Rb_tree_iteratorISt4pairIKmSt3mapImSsSt4lessImESaIS0_IS1_SsEEEEEppEv @165
    _ZNSt18_Rb_tree_node_base10_S_maximumEPS_ @166
    _ZNSt18_Rb_tree_node_base10_S_minimumEPS_ @167
    _ZNSt20__uninitialized_copyILb0EE13__uninit_copyIPSsS2_EET0_T_S4_S3_ @168
    _ZNSt23_Rb_tree_const_iteratorISt4pairIKmSsEEC1ERKSt17_Rb_tree_iteratorIS2_E @169
    _ZNSt23_Rb_tree_const_iteratorISt4pairIKmSt3mapImSsSt4lessImESaIS0_IS1_SsEEEEEC1ERKSt17_Rb_tree_iteratorIS8_E @170
    _ZNSt3mapImS_ImSsSt4lessImESaISt4pairIKmSsEEES1_SaIS2_IS3_S6_EEE11lower_boundERS3_ @171
    _ZNSt3mapImS_ImSsSt4lessImESaISt4pairIKmSsEEES1_SaIS2_IS3_S6_EEE3endEv @172
    _ZNSt3mapImS_ImSsSt4lessImESaISt4pairIKmSsEEES1_SaIS2_IS3_S6_EEE4findERS3_ @173
    _ZNSt3mapImS_ImSsSt4lessImESaISt4pairIKmSsEEES1_SaIS2_IS3_S6_EEEC1Ev @174
    _ZNSt3mapImS_ImSsSt4lessImESaISt4pairIKmSsEEES1_SaIS2_IS3_S6_EEED1Ev @175
    _ZNSt3mapImS_ImSsSt4lessImESaISt4pairIKmSsEEES1_SaIS2_IS3_S6_EEEixEOm @176
    _ZNSt3mapImS_ImSsSt4lessImESaISt4pairIKmSsEEES1_SaIS2_IS3_S6_EEEixERS3_ @177
    _ZNSt3mapImSsSt4lessImESaISt4pairIKmSsEEE11lower_boundERS3_ @178
    _ZNSt3mapImSsSt4lessImESaISt4pairIKmSsEEE3endEv @179
    _ZNSt3mapImSsSt4lessImESaISt4pairIKmSsEEE4findERS3_ @180
    _ZNSt3mapImSsSt4lessImESaISt4pairIKmSsEEE5beginEv @181
    _ZNSt3mapImSsSt4lessImESaISt4pairIKmSsEEEC1ERKS6_ @182
    _ZNSt3mapImSsSt4lessImESaISt4pairIKmSsEEEC1Ev @183
    _ZNSt3mapImSsSt4lessImESaISt4pairIKmSsEEED1Ev @184
    _ZNSt3mapImSsSt4lessImESaISt4pairIKmSsEEEaSERKS6_ @185
    _ZNSt3mapImSsSt4lessImESaISt4pairIKmSsEEEixEOm @186
    _ZNSt4pairIKmSsEC1ERKS1_ @187
    _ZNSt4pairIKmSsEC1IIOmEIEEESt21piecewise_construct_tSt5tupleIIDpT_EES5_IIDpT0_EE @188
    _ZNSt4pairIKmSsEC1IIOmEILj0EEIEIEEERSt5tupleIIDpT_EERS4_IIDpT1_EESt12_Index_tupleIIXspT0_EEESD_IIXspT2_EEE @189
    _ZNSt4pairIKmSsED1Ev @190
    _ZNSt4pairIKmSt3mapImSsSt4lessImESaIS_IS0_SsEEEEC1IIOmEIEEESt21piecewise_construct_tSt5tupleIIDpT_EESB_IIDpT0_EE @191
    _ZNSt4pairIKmSt3mapImSsSt4lessImESaIS_IS0_SsEEEEC1IIOmEILj0EEIEIEEERSt5tupleIIDpT_EERSA_IIDpT1_EESt12_Index_tupleIIXspT0_EEESJ_IIXspT2_EEE @192
    _ZNSt4pairIKmSt3mapImSsSt4lessImESaIS_IS0_SsEEEEC1IIRS0_EIEEESt21piecewise_construct_tSt5tupleIIDpT_EESB_IIDpT0_EE @193
    _ZNSt4pairIKmSt3mapImSsSt4lessImESaIS_IS0_SsEEEEC1IIRS0_EILj0EEIEIEEERSt5tupleIIDpT_EERSA_IIDpT1_EESt12_Index_tupleIIXspT0_EEESJ_IIXspT2_EEE @194
    _ZNSt4pairIKmSt3mapImSsSt4lessImESaIS_IS0_SsEEEED1Ev @195
    _ZNSt4pairIPSt18_Rb_tree_node_baseS1_EC1IRPSt13_Rb_tree_nodeIS_IKmSsEES9_vEEOT_OT0_ @196
    _ZNSt4pairIPSt18_Rb_tree_node_baseS1_EC1IRPSt13_Rb_tree_nodeIS_IKmSt3mapImSsSt4lessImESaIS_IS5_SsEEEEESF_vEEOT_OT0_ @197
    _ZNSt4pairIPSt18_Rb_tree_node_baseS1_EC1IRS1_S4_vEEOT_OT0_ @198
    _ZNSt4pairIPSt18_Rb_tree_node_baseS1_EC1IRS1_vEEOT_RKS1_ @199
    _ZNSt4pairIPSt18_Rb_tree_node_baseS1_EC1IRS1_vEERKS1_OT_ @200
    _ZNSt5tupleIIOmEEC1EOS1_ @201
    _ZNSt5tupleIIOmEEC1IImEvEEDpOT_ @202
    _ZNSt5tupleIIRKmEEC1EOS2_ @203
    _ZNSt5tupleIIRKmEEC1ES1_ @204
    _ZNSt6vectorISsSaISsEE19_M_emplace_back_auxIIRKSsEEEvDpOT_ @205
    _ZNSt6vectorISsSaISsEE9push_backERKSs @206
    _ZNSt6vectorISsSaISsEEC1Ev @207
    _ZNSt6vectorISsSaISsEED1Ev @208
    _ZNSt6vectorISsSaISsEEixEj @209
    _ZNSt8_Rb_treeImSt4pairIKmSsESt10_Select1stIS2_ESt4lessImESaIS2_EE10_S_maximumEPSt18_Rb_tree_node_base @210
    _ZNSt8_Rb_treeImSt4pairIKmSsESt10_Select1stIS2_ESt4lessImESaIS2_EE10_S_minimumEPSt18_Rb_tree_node_base @211
    _ZNSt8_Rb_treeImSt4pairIKmSsESt10_Select1stIS2_ESt4lessImESaIS2_EE11_M_get_nodeEv @212
    _ZNSt8_Rb_treeImSt4pairIKmSsESt10_Select1stIS2_ESt4lessImESaIS2_EE11_M_leftmostEv @213
    _ZNSt8_Rb_treeImSt4pairIKmSsESt10_Select1stIS2_ESt4lessImESaIS2_EE11_M_put_nodeEPSt13_Rb_tree_nodeIS2_E @214
    _ZNSt8_Rb_treeImSt4pairIKmSsESt10_Select1stIS2_ESt4lessImESaIS2_EE11lower_boundERS1_ @215
    _ZNSt8_Rb_treeImSt4pairIKmSsESt10_Select1stIS2_ESt4lessImESaIS2_EE12_M_rightmostEv @216
    _ZNSt8_Rb_treeImSt4pairIKmSsESt10_Select1stIS2_ESt4lessImESaIS2_EE13_M_clone_nodeEPKSt13_Rb_tree_nodeIS2_E @217
    _ZNSt8_Rb_treeImSt4pairIKmSsESt10_Select1stIS2_ESt4lessImESaIS2_EE13_Rb_tree_implIS6_Lb1EE13_M_initializeEv @218
    _ZNSt8_Rb_treeImSt4pairIKmSsESt10_Select1stIS2_ESt4lessImESaIS2_EE13_Rb_tree_implIS6_Lb1EEC1ERKS6_OSaISt13_Rb_tree_nodeIS2_EE @219
    _ZNSt8_Rb_treeImSt4pairIKmSsESt10_Select1stIS2_ESt4lessImESaIS2_EE13_Rb_tree_implIS6_Lb1EEC1Ev @220
    _ZNSt8_Rb_treeImSt4pairIKmSsESt10_Select1stIS2_ESt4lessImESaIS2_EE13_Rb_tree_implIS6_Lb1EED1Ev @221
    _ZNSt8_Rb_treeImSt4pairIKmSsESt10_Select1stIS2_ESt4lessImESaIS2_EE14_M_create_nodeIIRKS2_EEEPSt13_Rb_tree_nodeIS2_EDpOT_ @222
    _ZNSt8_Rb_treeImSt4pairIKmSsESt10_Select1stIS2_ESt4lessImESaIS2_EE14_M_create_nodeIIRKSt21piecewise_construct_tSt5tupleIIOmEESD_IIEEEEEPSt13_Rb_tree_nodeIS2_EDpOT_ @223
    _ZNSt8_Rb_treeImSt4pairIKmSsESt10_Select1stIS2_ESt4lessImESaIS2_EE14_M_insert_nodeEPSt18_Rb_tree_node_baseSA_PSt13_Rb_tree_nodeIS2_E @224
    _ZNSt8_Rb_treeImSt4pairIKmSsESt10_Select1stIS2_ESt4lessImESaIS2_EE14_M_lower_boundEPSt13_Rb_tree_nodeIS2_ESB_RS1_ @225
    _ZNSt8_Rb_treeImSt4pairIKmSsESt10_Select1stIS2_ESt4lessImESaIS2_EE15_M_destroy_nodeEPSt13_Rb_tree_nodeIS2_E @226
    _ZNSt8_Rb_treeImSt4pairIKmSsESt10_Select1stIS2_ESt4lessImESaIS2_EE21_M_get_Node_allocatorEv @227
    _ZNSt8_Rb_treeImSt4pairIKmSsESt10_Select1stIS2_ESt4lessImESaIS2_EE22_M_emplace_hint_uniqueIIRKSt21piecewise_construct_tSt5tupleIIOmEESD_IIEEEEESt17_Rb_tree_iteratorIS2_ESt23_Rb_tree_const_iteratorIS2_EDpOT_ @228
    _ZNSt8_Rb_treeImSt4pairIKmSsESt10_Select1stIS2_ESt4lessImESaIS2_EE24_M_get_insert_unique_posERS1_ @229
    _ZNSt8_Rb_treeImSt4pairIKmSsESt10_Select1stIS2_ESt4lessImESaIS2_EE29_M_get_insert_hint_unique_posESt23_Rb_tree_const_iteratorIS2_ERS1_ @230
    _ZNSt8_Rb_treeImSt4pairIKmSsESt10_Select1stIS2_ESt4lessImESaIS2_EE3endEv @231
    _ZNSt8_Rb_treeImSt4pairIKmSsESt10_Select1stIS2_ESt4lessImESaIS2_EE4findERS1_ @232
    _ZNSt8_Rb_treeImSt4pairIKmSsESt10_Select1stIS2_ESt4lessImESaIS2_EE5beginEv @233
    _ZNSt8_Rb_treeImSt4pairIKmSsESt10_Select1stIS2_ESt4lessImESaIS2_EE5clearEv @234
    _ZNSt8_Rb_treeImSt4pairIKmSsESt10_Select1stIS2_ESt4lessImESaIS2_EE6_M_endEv @235
    _ZNSt8_Rb_treeImSt4pairIKmSsESt10_Select1stIS2_ESt4lessImESaIS2_EE6_S_keyEPKSt13_Rb_tree_nodeIS2_E @236
    _ZNSt8_Rb_treeImSt4pairIKmSsESt10_Select1stIS2_ESt4lessImESaIS2_EE6_S_keyEPKSt18_Rb_tree_node_base @237
    _ZNSt8_Rb_treeImSt4pairIKmSsESt10_Select1stIS2_ESt4lessImESaIS2_EE7_M_copyEPKSt13_Rb_tree_nodeIS2_EPSA_ @238
    _ZNSt8_Rb_treeImSt4pairIKmSsESt10_Select1stIS2_ESt4lessImESaIS2_EE7_M_rootEv @239
    _ZNSt8_Rb_treeImSt4pairIKmSsESt10_Select1stIS2_ESt4lessImESaIS2_EE7_S_leftEPKSt18_Rb_tree_node_base @240
    _ZNSt8_Rb_treeImSt4pairIKmSsESt10_Select1stIS2_ESt4lessImESaIS2_EE7_S_leftEPSt18_Rb_tree_node_base @241
    _ZNSt8_Rb_treeImSt4pairIKmSsESt10_Select1stIS2_ESt4lessImESaIS2_EE8_M_beginEv @242
    _ZNSt8_Rb_treeImSt4pairIKmSsESt10_Select1stIS2_ESt4lessImESaIS2_EE8_M_eraseEPSt13_Rb_tree_nodeIS2_E @243
    _ZNSt8_Rb_treeImSt4pairIKmSsESt10_Select1stIS2_ESt4lessImESaIS2_EE8_S_rightEPKSt18_Rb_tree_node_base @244
    _ZNSt8_Rb_treeImSt4pairIKmSsESt10_Select1stIS2_ESt4lessImESaIS2_EE8_S_rightEPSt18_Rb_tree_node_base @245
    _ZNSt8_Rb_treeImSt4pairIKmSsESt10_Select1stIS2_ESt4lessImESaIS2_EE8_S_valueEPKSt13_Rb_tree_nodeIS2_E @246
    _ZNSt8_Rb_treeImSt4pairIKmSsESt10_Select1stIS2_ESt4lessImESaIS2_EE8_S_valueEPKSt18_Rb_tree_node_base @247
    _ZNSt8_Rb_treeImSt4pairIKmSsESt10_Select1stIS2_ESt4lessImESaIS2_EEC1ERKS8_ @248
    _ZNSt8_Rb_treeImSt4pairIKmSsESt10_Select1stIS2_ESt4lessImESaIS2_EEC1Ev @249
    _ZNSt8_Rb_treeImSt4pairIKmSsESt10_Select1stIS2_ESt4lessImESaIS2_EED1Ev @250
    _ZNSt8_Rb_treeImSt4pairIKmSsESt10_Select1stIS2_ESt4lessImESaIS2_EEaSERKS8_ @251
    _ZNSt8_Rb_treeImSt4pairIKmSt3mapImSsSt4lessImESaIS0_IS1_SsEEEESt10_Select1stIS8_ES4_SaIS8_EE11_M_get_nodeEv @252
    _ZNSt8_Rb_treeImSt4pairIKmSt3mapImSsSt4lessImESaIS0_IS1_SsEEEESt10_Select1stIS8_ES4_SaIS8_EE11_M_leftmostEv @253
    _ZNSt8_Rb_treeImSt4pairIKmSt3mapImSsSt4lessImESaIS0_IS1_SsEEEESt10_Select1stIS8_ES4_SaIS8_EE11_M_put_nodeEPSt13_Rb_tree_nodeIS8_E @254
    _ZNSt8_Rb_treeImSt4pairIKmSt3mapImSsSt4lessImESaIS0_IS1_SsEEEESt10_Select1stIS8_ES4_SaIS8_EE11lower_boundERS1_ @255
    _ZNSt8_Rb_treeImSt4pairIKmSt3mapImSsSt4lessImESaIS0_IS1_SsEEEESt10_Select1stIS8_ES4_SaIS8_EE12_M_rightmostEv @256
    _ZNSt8_Rb_treeImSt4pairIKmSt3mapImSsSt4lessImESaIS0_IS1_SsEEEESt10_Select1stIS8_ES4_SaIS8_EE13_Rb_tree_implIS4_Lb1EE13_M_initializeEv @257
    _ZNSt8_Rb_treeImSt4pairIKmSt3mapImSsSt4lessImESaIS0_IS1_SsEEEESt10_Select1stIS8_ES4_SaIS8_EE13_Rb_tree_implIS4_Lb1EEC1Ev @258
    _ZNSt8_Rb_treeImSt4pairIKmSt3mapImSsSt4lessImESaIS0_IS1_SsEEEESt10_Select1stIS8_ES4_SaIS8_EE13_Rb_tree_implIS4_Lb1EED1Ev @259
    _ZNSt8_Rb_treeImSt4pairIKmSt3mapImSsSt4lessImESaIS0_IS1_SsEEEESt10_Select1stIS8_ES4_SaIS8_EE14_M_create_nodeIIRKSt21piecewise_construct_tSt5tupleIIOmEESH_IIEEEEEPSt13_Rb_tree_nodeIS8_EDpOT_ @260
    _ZNSt8_Rb_treeImSt4pairIKmSt3mapImSsSt4lessImESaIS0_IS1_SsEEEESt10_Select1stIS8_ES4_SaIS8_EE14_M_create_nodeIIRKSt21piecewise_construct_tSt5tupleIIRS1_EESH_IIEEEEEPSt13_Rb_tree_nodeIS8_EDpOT_ @261
    _ZNSt8_Rb_treeImSt4pairIKmSt3mapImSsSt4lessImESaIS0_IS1_SsEEEESt10_Select1stIS8_ES4_SaIS8_EE14_M_insert_nodeEPSt18_Rb_tree_node_baseSE_PSt13_Rb_tree_nodeIS8_E @262
    _ZNSt8_Rb_treeImSt4pairIKmSt3mapImSsSt4lessImESaIS0_IS1_SsEEEESt10_Select1stIS8_ES4_SaIS8_EE14_M_lower_boundEPSt13_Rb_tree_nodeIS8_ESF_RS1_ @263
    _ZNSt8_Rb_treeImSt4pairIKmSt3mapImSsSt4lessImESaIS0_IS1_SsEEEESt10_Select1stIS8_ES4_SaIS8_EE15_M_destroy_nodeEPSt13_Rb_tree_nodeIS8_E @264
    _ZNSt8_Rb_treeImSt4pairIKmSt3mapImSsSt4lessImESaIS0_IS1_SsEEEESt10_Select1stIS8_ES4_SaIS8_EE21_M_get_Node_allocatorEv @265
    _ZNSt8_Rb_treeImSt4pairIKmSt3mapImSsSt4lessImESaIS0_IS1_SsEEEESt10_Select1stIS8_ES4_SaIS8_EE22_M_emplace_hint_uniqueIIRKSt21piecewise_construct_tSt5tupleIIOmEESH_IIEEEEESt17_Rb_tree_iteratorIS8_ESt23_Rb_tree_const_iteratorIS8_EDpOT_ @266
    _ZNSt8_Rb_treeImSt4pairIKmSt3mapImSsSt4lessImESaIS0_IS1_SsEEEESt10_Select1stIS8_ES4_SaIS8_EE22_M_emplace_hint_uniqueIIRKSt21piecewise_construct_tSt5tupleIIRS1_EESH_IIEEEEESt17_Rb_tree_iteratorIS8_ESt23_Rb_tree_const_iteratorIS8_EDpOT_ @267
    _ZNSt8_Rb_treeImSt4pairIKmSt3mapImSsSt4lessImESaIS0_IS1_SsEEEESt10_Select1stIS8_ES4_SaIS8_EE24_M_get_insert_unique_posERS1_ @268
    _ZNSt8_Rb_treeImSt4pairIKmSt3mapImSsSt4lessImESaIS0_IS1_SsEEEESt10_Select1stIS8_ES4_SaIS8_EE29_M_get_insert_hint_unique_posESt23_Rb_tree_const_iteratorIS8_ERS1_ @269
    _ZNSt8_Rb_treeImSt4pairIKmSt3mapImSsSt4lessImESaIS0_IS1_SsEEEESt10_Select1stIS8_ES4_SaIS8_EE3endEv @270
    _ZNSt8_Rb_treeImSt4pairIKmSt3mapImSsSt4lessImESaIS0_IS1_SsEEEESt10_Select1stIS8_ES4_SaIS8_EE4findERS1_ @271
    _ZNSt8_Rb_treeImSt4pairIKmSt3mapImSsSt4lessImESaIS0_IS1_SsEEEESt10_Select1stIS8_ES4_SaIS8_EE5beginEv @272
    _ZNSt8_Rb_treeImSt4pairIKmSt3mapImSsSt4lessImESaIS0_IS1_SsEEEESt10_Select1stIS8_ES4_SaIS8_EE6_M_endEv @273
    _ZNSt8_Rb_treeImSt4pairIKmSt3mapImSsSt4lessImESaIS0_IS1_SsEEEESt10_Select1stIS8_ES4_SaIS8_EE6_S_keyEPKSt13_Rb_tree_nodeIS8_E @274
    _ZNSt8_Rb_treeImSt4pairIKmSt3mapImSsSt4lessImESaIS0_IS1_SsEEEESt10_Select1stIS8_ES4_SaIS8_EE6_S_keyEPKSt18_Rb_tree_node_base @275
    _ZNSt8_Rb_treeImSt4pairIKmSt3mapImSsSt4lessImESaIS0_IS1_SsEEEESt10_Select1stIS8_ES4_SaIS8_EE7_S_leftEPSt18_Rb_tree_node_base @276
    _ZNSt8_Rb_treeImSt4pairIKmSt3mapImSsSt4lessImESaIS0_IS1_SsEEEESt10_Select1stIS8_ES4_SaIS8_EE8_M_beginEv @277
    _ZNSt8_Rb_treeImSt4pairIKmSt3mapImSsSt4lessImESaIS0_IS1_SsEEEESt10_Select1stIS8_ES4_SaIS8_EE8_M_eraseEPSt13_Rb_tree_nodeIS8_E @278
    _ZNSt8_Rb_treeImSt4pairIKmSt3mapImSsSt4lessImESaIS0_IS1_SsEEEESt10_Select1stIS8_ES4_SaIS8_EE8_S_rightEPSt18_Rb_tree_node_base @279
    _ZNSt8_Rb_treeImSt4pairIKmSt3mapImSsSt4lessImESaIS0_IS1_SsEEEESt10_Select1stIS8_ES4_SaIS8_EE8_S_valueEPKSt13_Rb_tree_nodeIS8_E @280
    _ZNSt8_Rb_treeImSt4pairIKmSt3mapImSsSt4lessImESaIS0_IS1_SsEEEESt10_Select1stIS8_ES4_SaIS8_EE8_S_valueEPKSt18_Rb_tree_node_base @281
    _ZNSt8_Rb_treeImSt4pairIKmSt3mapImSsSt4lessImESaIS0_IS1_SsEEEESt10_Select1stIS8_ES4_SaIS8_EEC1Ev @282
    _ZNSt8_Rb_treeImSt4pairIKmSt3mapImSsSt4lessImESaIS0_IS1_SsEEEESt10_Select1stIS8_ES4_SaIS8_EED1Ev @283
    _ZSt10_ConstructISsIRSsEEvPT_DpOT0_ @284
    _ZSt11__addressofISsEPT_RS0_ @285
    _ZSt12__get_helperILj0EOmIEENSt9__add_refIT0_E4typeERSt11_Tuple_implIXT_EIS2_DpT1_EE @286
    _ZSt12__get_helperILj0ERKmIEENSt9__add_refIT0_E4typeERSt11_Tuple_implIXT_EIS3_DpT1_EE @287
    _ZSt15__alloc_on_copyISaISt13_Rb_tree_nodeISt4pairIKmSsEEEEvRT_RKS6_ @288
    _ZSt16forward_as_tupleIImEESt5tupleIIDpOT_EES3_ @289
    _ZSt18__do_alloc_on_copyISaISt13_Rb_tree_nodeISt4pairIKmSsEEEEvRT_RKS6_St17integral_constantIbLb0EE @290
    _ZSt18uninitialized_copyIPSsS0_ET0_T_S2_S1_ @291
    _ZSt22__uninitialized_copy_aIPSsS0_SsET0_T_S2_S1_RSaIT1_E @292
    _ZSt32__make_move_if_noexcept_iteratorIPSsS0_ET0_T_ @293
    _ZSt34__uninitialized_move_if_noexcept_aIPSsS0_SaISsEET0_T_S3_S2_RT1_ @294
    _ZSt3getILj0EIOmEENSt9__add_refINSt13tuple_elementIXT_ESt5tupleIIDpT0_EEE4typeEE4typeERS6_ @295
    _ZSt3getILj0EIRKmEENSt9__add_refINSt13tuple_elementIXT_ESt5tupleIIDpT0_EEE4typeEE4typeERS7_ @296
    _ZSt3maxIjERKT_S2_S2_ @297
    _ZSt4moveIRSaISt13_Rb_tree_nodeISt4pairIKmSsEEEEONSt16remove_referenceIT_E4typeEOS8_ @298
    _ZSt4moveIRSt11_Tuple_implILj1EIEEEONSt16remove_referenceIT_E4typeEOS4_ @299
    _ZSt4moveIRmEONSt16remove_referenceIT_E4typeEOS2_ @300
    _ZSt7forwardIOmEOT_RNSt16remove_referenceIS1_E4typeE @301
    _ZSt7forwardIRKSsEOT_RNSt16remove_referenceIS2_E4typeE @302
    _ZSt7forwardIRKSt21piecewise_construct_tEOT_RNSt16remove_referenceIS3_E4typeE @303
    _ZSt7forwardIRKSt4pairIKmSsEEOT_RNSt16remove_referenceIS5_E4typeE @304
    _ZSt7forwardIRKmEOT_RNSt16remove_referenceIS2_E4typeE @305
    _ZSt7forwardIRPSt13_Rb_tree_nodeISt4pairIKmSsEEEOT_RNSt16remove_referenceIS7_E4typeE @306
    _ZSt7forwardIRPSt13_Rb_tree_nodeISt4pairIKmSt3mapImSsSt4lessImESaIS1_IS2_SsEEEEEEOT_RNSt16remove_referenceISD_E4typeE @307
    _ZSt7forwardIRPSt18_Rb_tree_node_baseEOT_RNSt16remove_referenceIS3_E4typeE @308
    _ZSt7forwardIRSsEOT_RNSt16remove_referenceIS1_E4typeE @309
    _ZSt7forwardISt5tupleIIEEEOT_RNSt16remove_referenceIS2_E4typeE @310
    _ZSt7forwardISt5tupleIIOmEEEOT_RNSt16remove_referenceIS3_E4typeE @311
    _ZSt7forwardISt5tupleIIRKmEEEOT_RNSt16remove_referenceIS4_E4typeE @312
    _ZSt7forwardImEOT_RNSt16remove_referenceIS0_E4typeE @313
    _ZSt8_DestroyIPSsEvT_S1_ @314
    _ZSt8_DestroyIPSsSsEvT_S1_RSaIT0_E @315
    _ZSt8_DestroyISsEvPT_ @316
    _ZStneISt13_Rb_tree_nodeISt4pairIKmSsEEEbRKSaIT_ES8_ @317
    _ZStorSt13_Ios_OpenmodeS_ @318
    _ZStplIcSt11char_traitsIcESaIcEESbIT_T0_T1_EPKS3_RKS6_ @319
    _ZTI10FileHelper @320 DATA
    _ZTI8IOHelper @321 DATA
    _ZTI9CsvReader @322 DATA
    _ZTI9DirHelper @323 DATA
    _ZTS10FileHelper @324 DATA
    _ZTS8IOHelper @325 DATA
    _ZTS9CsvReader @326 DATA
    _ZTS9DirHelper @327 DATA
    _ZTV10FileHelper @328 DATA
    _ZTV8IOHelper @329 DATA
    _ZTV9CsvReader @330 DATA
    _ZTV9DirHelper @331 DATA
    _ZdlPvS_ @332
    _ZnwjPv @333
    _get_output_format @334
    main @335
